; Function Attrs: nounwind uwtable
define void @__redisAsyncDisconnect(ptr noundef %ac) local_unnamed_addr #0 {
entry:
  %tobool.not.i = icmp eq ptr %ac, null
  br i1 %tobool.not.i, label %entry.__redisAsyncCopyError.exit_crit_edge, label %if.end.i

entry.__redisAsyncCopyError.exit_crit_edge:       ; preds = %entry
  %.pre = load i32, ptr inttoptr (i64 272 to ptr), align 16
  br label %__redisAsyncCopyError.exit

if.end.i:                                         ; preds = %entry
  %err.i = getelementptr inbounds i8, ptr %ac, i64 8
  %0 = load i32, ptr %err.i, align 8
  %err2.i = getelementptr inbounds i8, ptr %ac, i64 272
  store i32 %0, ptr %err2.i, align 8
  %errstr.i = getelementptr inbounds i8, ptr %ac, i64 12
  %errstr3.i = getelementptr inbounds i8, ptr %ac, i64 280
  store ptr %errstr.i, ptr %errstr3.i, align 8
  br label %__redisAsyncCopyError.exit

__redisAsyncCopyError.exit:                       ; preds = %entry.__redisAsyncCopyError.exit_crit_edge, %if.end.i
  %1 = phi i32 [ %.pre, %entry.__redisAsyncCopyError.exit_crit_edge ], [ %0, %if.end.i ]
  %cmp = icmp eq i32 %1, 0
  br i1 %cmp, label %if.then, label %if.else

if.then:                                          ; preds = %__redisAsyncCopyError.exit
  %replies = getelementptr inbounds i8, ptr %ac, i64 384
  %2 = load ptr, ptr %replies, align 8
  %cmp.not.i = icmp eq ptr %2, null
  br i1 %cmp.not.i, label %do.body, label %if.then.i

if.then.i:                                        ; preds = %if.then
  %3 = load ptr, ptr %2, align 8
  store ptr %3, ptr %replies, align 8
  %tail.i = getelementptr inbounds i8, ptr %ac, i64 392
  %4 = load ptr, ptr %tail.i, align 8
  %cmp2.i = icmp eq ptr %2, %4
  br i1 %cmp2.i, label %if.then3.i, label %if.end.i10

if.then3.i:                                       ; preds = %if.then.i
  store ptr null, ptr %tail.i, align 8
  br label %if.end.i10

if.end.i10:                                       ; preds = %if.then3.i, %if.then.i
  %5 = load ptr, ptr getelementptr inbounds (%struct.hiredisAllocFuncs, ptr @hiredisAllocFns, i64 0, i32 4), align 8
  tail call void %5(ptr noundef nonnull %2) #14
  br label %do.body

if.else:                                          ; preds = %__redisAsyncCopyError.exit
  %flags = getelementptr inbounds i8, ptr %ac, i64 144
  %6 = load i32, ptr %flags, align 8
  %or = or i32 %6, 4
  store i32 %or, ptr %flags, align 8
  br label %do.body

do.body:                                          ; preds = %if.end.i10, %if.then, %if.else
  %cleanup = getelementptr inbounds i8, ptr %ac, i64 344
  %7 = load ptr, ptr %cleanup, align 8
  %tobool.not = icmp eq ptr %7, null
  br i1 %tobool.not, label %if.end7, label %if.then3

if.then3:                                         ; preds = %do.body
  %ev = getelementptr inbounds i8, ptr %ac, i64 304
  %8 = load ptr, ptr %ev, align 8
  tail call void %7(ptr noundef %8) #14
  br label %if.end7

if.end7:                                          ; preds = %if.then3, %do.body
  store ptr null, ptr %cleanup, align 8
  %flags10 = getelementptr inbounds i8, ptr %ac, i64 144
  %9 = load i32, ptr %flags10, align 8
  %and = and i32 %9, 512
  %tobool11.not = icmp eq i32 %and, 0
  br i1 %tobool11.not, label %if.then12, label %if.end13

if.then12:                                        ; preds = %if.end7
  tail call fastcc void @__redisAsyncFree(ptr noundef nonnull %ac)
  br label %if.end13

if.end13:                                         ; preds = %if.then12, %if.end7
  ret void
}